; Function Attrs: mustprogress uwtable
define void @_ZN3gmx19SimulationSignaller15finalizeSignalsEv(ptr noundef nonnull align 8 dereferenceable(40) %0) local_unnamed_addr #3 align 2 {
  %2 = getelementptr inbounds nuw i8, ptr %0, i64 24
  %3 = load i8, ptr %2, align 8, !tbaa !16, !range !18, !noundef !19
  %4 = trunc nuw i8 %3 to i1
  br i1 %4, label %5, label %_ZN3gmx19SimulationSignaller14signalInterSimEv.exit

5:                                                ; preds = %1
  %6 = getelementptr inbounds nuw i8, ptr %0, i64 8
  %7 = load ptr, ptr %6, align 8, !tbaa !14
  %8 = getelementptr inbounds nuw i8, ptr %7, i64 60
  %9 = load i32, ptr %8, align 4, !tbaa !26
  %10 = icmp eq i32 %9, 0
  br i1 %10, label %15, label %11

11:                                               ; preds = %5
  %12 = getelementptr inbounds nuw i8, ptr %7, i64 56
  %13 = load i32, ptr %12, align 8, !tbaa !45
  %14 = icmp sgt i32 %13, 1
  br i1 %14, label %19, label %15

15:                                               ; preds = %11, %5
  %16 = getelementptr inbounds nuw i8, ptr %0, i64 28
  %17 = getelementptr inbounds nuw i8, ptr %0, i64 16
  %18 = load ptr, ptr %17, align 8, !tbaa !15
  tail call void @_Z12gmx_sumf_simiPfPK14gmx_multisim_t(i32 noundef 3, ptr noundef nonnull %16, ptr noundef %18)
  %.pre.i = load ptr, ptr %6, align 8, !tbaa !14
  br label %19

19:                                               ; preds = %15, %11
  %20 = phi ptr [ %.pre.i, %15 ], [ %7, %11 ]
  %21 = getelementptr i8, ptr %20, i64 112
  %.val.i = load ptr, ptr %21, align 8, !tbaa !46
  %.not.i = icmp eq ptr %.val.i, null
  br i1 %.not.i, label %_ZN3gmx19SimulationSignaller14signalInterSimEv.exit, label %22

22:                                               ; preds = %19
  %23 = getelementptr inbounds nuw i8, ptr %0, i64 28
  %24 = getelementptr inbounds nuw i8, ptr %20, i64 32
  %25 = load ptr, ptr %24, align 8, !tbaa !47
  tail call void @_Z9gmx_bcastmPvP10tmpi_comm_(i64 noundef 12, ptr noundef nonnull %23, ptr noundef %25)
  br label %_ZN3gmx19SimulationSignaller14signalInterSimEv.exit

_ZN3gmx19SimulationSignaller14signalInterSimEv.exit: ; preds = %1, %19, %22
  %26 = getelementptr inbounds nuw i8, ptr %0, i64 25
  %27 = load i8, ptr %26, align 1, !tbaa !17, !range !18, !noundef !19
  %28 = trunc nuw i8 %27 to i1
  br i1 %28, label %29, label %_ZN3gmx19SimulationSignaller10setSignalsEv.exit

29:                                               ; preds = %_ZN3gmx19SimulationSignaller14signalInterSimEv.exit
  %30 = load ptr, ptr %0, align 8, !tbaa !4
  %31 = load i8, ptr %2, align 8, !tbaa !16, !range !18, !noundef !19
  %32 = trunc nuw i8 %31 to i1
  %33 = getelementptr inbounds nuw i8, ptr %0, i64 28
  br i1 %32, label %.split.us.i, label %.split.i

.split.us.i:                                      ; preds = %29, %39
  %.012.us.i = phi i64 [ %41, %39 ], [ 0, %29 ]
  %34 = getelementptr inbounds nuw [3 x float], ptr %33, i64 0, i64 %.012.us.i
  %35 = load float, ptr %34, align 4, !tbaa !22
  %36 = fptosi float %35 to i8
  %.not.us.i = icmp eq i8 %36, 0
  br i1 %.not.us.i, label %39, label %37

37:                                               ; preds = %.split.us.i
  %38 = getelementptr inbounds nuw [3 x %"class.gmx::SimulationSignal"], ptr %30, i64 0, i64 %.012.us.i, i32 1
  store i8 %36, ptr %38, align 1, !tbaa !48
  br label %39

39:                                               ; preds = %37, %.split.us.i
  %40 = getelementptr inbounds nuw [3 x %"class.gmx::SimulationSignal"], ptr %30, i64 0, i64 %.012.us.i
  store i8 0, ptr %40, align 1, !tbaa !20
  %41 = add nuw nsw i64 %.012.us.i, 1
  %exitcond14.not.i = icmp eq i64 %41, 3
  br i1 %exitcond14.not.i, label %_ZN3gmx19SimulationSignaller10setSignalsEv.exit, label %.split.us.i, !llvm.loop !49

.split.i:                                         ; preds = %29, %53
  %.012.i = phi i64 [ %54, %53 ], [ 0, %29 ]
  %42 = getelementptr inbounds nuw [3 x %"class.gmx::SimulationSignal"], ptr %30, i64 0, i64 %.012.i, i32 2
  %43 = load i8, ptr %42, align 1, !tbaa !50, !range !18, !noundef !19
  %44 = trunc nuw i8 %43 to i1
  br i1 %44, label %45, label %53

45:                                               ; preds = %.split.i
  %46 = getelementptr inbounds nuw [3 x float], ptr %33, i64 0, i64 %.012.i
  %47 = load float, ptr %46, align 4, !tbaa !22
  %48 = fptosi float %47 to i8
  %.not.i1 = icmp eq i8 %48, 0
  br i1 %.not.i1, label %51, label %49

49:                                               ; preds = %45
  %50 = getelementptr inbounds nuw [3 x %"class.gmx::SimulationSignal"], ptr %30, i64 0, i64 %.012.i, i32 1
  store i8 %48, ptr %50, align 1, !tbaa !48
  br label %51

51:                                               ; preds = %49, %45
  %52 = getelementptr inbounds nuw [3 x %"class.gmx::SimulationSignal"], ptr %30, i64 0, i64 %.012.i
  store i8 0, ptr %52, align 1, !tbaa !20
  br label %53

53:                                               ; preds = %51, %.split.i
  %54 = add nuw nsw i64 %.012.i, 1
  %exitcond.not.i = icmp eq i64 %54, 3
  br i1 %exitcond.not.i, label %_ZN3gmx19SimulationSignaller10setSignalsEv.exit, label %.split.i, !llvm.loop !49

_ZN3gmx19SimulationSignaller10setSignalsEv.exit:  ; preds = %53, %39, %_ZN3gmx19SimulationSignaller14signalInterSimEv.exit
  ret void
}